; Function Attrs: mustprogress uwtable
define void @_ZN16FrameInformation13printableDataEv(ptr dead_on_unwind noalias writable sret(%class.QByteArray) align 8 %0, ptr nocapture noundef nonnull readonly align 8 dereferenceable(360) %1) unnamed_addr #0 align 2 {
  %3 = getelementptr inbounds i8, ptr %1, i64 24
  %4 = load ptr, ptr %3, align 8
  %.not = icmp eq ptr %4, null
  br i1 %.not, label %8, label %5

5:                                                ; preds = %2
  %6 = getelementptr inbounds i8, ptr %1, i64 40
  %7 = load ptr, ptr %6, align 8
  %.not3 = icmp eq ptr %7, null
  br i1 %.not3, label %8, label %9

8:                                                ; preds = %5, %2
  tail call void @llvm.memset.p0.i64(ptr noundef nonnull align 8 dereferenceable(24) %0, i8 0, i64 24, i1 false)
  br label %18

9:                                                ; preds = %5
  %10 = getelementptr inbounds i8, ptr %7, i64 8
  %11 = load ptr, ptr %10, align 8
  %12 = tail call i32 @tvb_captured_length(ptr noundef %11)
  %13 = load ptr, ptr %6, align 8
  %14 = getelementptr inbounds i8, ptr %13, i64 8
  %15 = load ptr, ptr %14, align 8
  %16 = tail call ptr @tvb_get_ptr(ptr noundef %15, i32 noundef 0, i32 noundef %12)
  %17 = sext i32 %12 to i64
  tail call void @_ZN10QByteArrayC1EPKcx(ptr noundef nonnull align 8 dereferenceable(24) %0, ptr noundef %16, i64 noundef %17)
  br label %18

18:                                               ; preds = %9, %8
  ret void
}